target datalayout = "e-m:e-p270:32:32-p271:32:32-p272:64:64-i64:64-i128:128-f80:128-n8:16:32:64-S128"
target triple = "x86_64-pc-linux-gnu"

%struct.XML_Memory_Handling_Suite = type { ptr, ptr, ptr }
%struct.XML_ParserStruct = type { ptr, ptr, ptr, %struct.XML_Memory_Handling_Suite, ptr, ptr, ptr, i64, ptr, i64, i8, i32, ptr, ptr, ptr, ptr, ptr, ptr, ptr, ptr, ptr, ptr, ptr, ptr, ptr, ptr, ptr, ptr, ptr, ptr, ptr, ptr, ptr, ptr, ptr, ptr, ptr, ptr, %struct.INIT_ENCODING, ptr, ptr, i8, i8, ptr, ptr, ptr, ptr, %struct.prolog_state, ptr, i32, ptr, ptr, ptr, ptr, ptr, i8, i32, ptr, ptr, ptr, ptr, ptr, ptr, ptr, ptr, ptr, i8, i8, ptr, ptr, ptr, ptr, ptr, ptr, i32, i32, i32, ptr, ptr, i64, i8, %struct.position, %struct.STRING_POOL, %struct.STRING_POOL, ptr, i32, i8, ptr, %struct.XML_ParsingStatus, i8, i8, i32, i64, %struct.accounting, %struct.entity_stats }
%struct.INIT_ENCODING = type { %struct.encoding, ptr }
%struct.encoding = type { [4 x ptr], [2 x ptr], ptr, ptr, ptr, ptr, ptr, ptr, ptr, ptr, ptr, ptr, i32, i8, i8 }
%struct.prolog_state = type { ptr, i32, i32, i32, i32, i32 }
%struct.position = type { i64, i64 }
%struct.STRING_POOL = type { ptr, ptr, ptr, ptr, ptr, ptr }
%struct.XML_ParsingStatus = type { i32, i8 }
%struct.accounting = type { i64, i64, i64, float, i64 }
%struct.entity_stats = type { i32, i32, i32, i64 }

@.str.312 = private unnamed_addr constant [1 x i8] zeroinitializer, align 1
@stderr = external global ptr, align 8
@.str.314 = private unnamed_addr constant [41 x i8] c" (+%6ld bytes %s|%u, xmlparse.c:%d) %*s\22\00", align 1
@.str.315 = private unnamed_addr constant [4 x i8] c"DIR\00", align 1
@.str.316 = private unnamed_addr constant [4 x i8] c"EXP\00", align 1
@__const.accountingReportDiff.ellipis = private unnamed_addr constant [5 x i8] c"[..]\00", align 1
@.str.317 = private unnamed_addr constant [3 x i8] c"%s\00", align 1
@.str.318 = private unnamed_addr constant [3 x i8] c"\22\0A\00", align 1

; Function Attrs: nounwind uwtable
define internal void @accountingReportDiff(ptr noundef %0, i32 noundef %1, ptr noundef %2, ptr noundef %3, i64 noundef %4, i32 noundef %5, i32 noundef %6) #0 {
  %8 = alloca ptr, align 8
  %9 = alloca i32, align 4
  %10 = alloca ptr, align 8
  %11 = alloca ptr, align 8
  %12 = alloca i64, align 8
  %13 = alloca i32, align 4
  %14 = alloca i32, align 4
  %15 = alloca [5 x i8], align 1
  %16 = alloca i64, align 8
  %17 = alloca i32, align 4
  %18 = alloca ptr, align 8
  store ptr %0, ptr %8, align 8, !tbaa !12
  store i32 %1, ptr %9, align 4, !tbaa !174
  store ptr %2, ptr %10, align 8, !tbaa !3
  store ptr %3, ptr %11, align 8, !tbaa !3
  store i64 %4, ptr %12, align 8, !tbaa !172
  store i32 %5, ptr %13, align 4, !tbaa !174
  store i32 %6, ptr %14, align 4, !tbaa !174
  %19 = load ptr, ptr @stderr, align 8, !tbaa !313
  %20 = load i64, ptr %12, align 8, !tbaa !172
  %21 = load i32, ptr %14, align 4, !tbaa !174
  %22 = icmp eq i32 %21, 0
  %23 = select i1 %22, ptr @.str.315, ptr @.str.316
  %24 = load i32, ptr %9, align 4, !tbaa !174
  %25 = load i32, ptr %13, align 4, !tbaa !174
  %26 = call i32 (ptr, ptr, ...) @fprintf(ptr noundef %19, ptr noundef @.str.314, i64 noundef %20, ptr noundef %23, i32 noundef %24, i32 noundef %25, i32 noundef 10, ptr noundef @.str.312) #11
  call void @llvm.lifetime.start.p0(i64 5, ptr %15) #11
  call void @llvm.memcpy.p0.p0.i64(ptr align 1 %15, ptr align 1 @__const.accountingReportDiff.ellipis, i64 5, i1 false)
  call void @llvm.lifetime.start.p0(i64 8, ptr %16) #11
  store i64 4, ptr %16, align 8, !tbaa !172
  call void @llvm.lifetime.start.p0(i64 4, ptr %17) #11
  store i32 10, ptr %17, align 4, !tbaa !174
  call void @llvm.lifetime.start.p0(i64 8, ptr %18) #11
  %27 = load ptr, ptr %10, align 8, !tbaa !3
  store ptr %27, ptr %18, align 8, !tbaa !3
  %28 = load ptr, ptr %8, align 8, !tbaa !12
  %29 = getelementptr inbounds nuw %struct.XML_ParserStruct, ptr %28, i32 0, i32 93
  %30 = getelementptr inbounds nuw %struct.accounting, ptr %29, i32 0, i32 2
  %31 = load i64, ptr %30, align 8, !tbaa !148
  %32 = icmp uge i64 %31, 3
  br i1 %32, label %40, label %33

33:                                               ; preds = %7
  %34 = load ptr, ptr %11, align 8, !tbaa !3
  %35 = load ptr, ptr %10, align 8, !tbaa !3
  %36 = ptrtoint ptr %34 to i64
  %37 = ptrtoint ptr %35 to i64
  %38 = sub i64 %36, %37
  %39 = icmp sle i64 %38, 24
  br i1 %39, label %40, label %56

40:                                               ; preds = %33, %7
  br label %41

41:                                               ; preds = %52, %40
  %42 = load ptr, ptr %18, align 8, !tbaa !3
  %43 = load ptr, ptr %11, align 8, !tbaa !3
  %44 = icmp ult ptr %42, %43
  br i1 %44, label %45, label %55

45:                                               ; preds = %41
  %46 = load ptr, ptr @stderr, align 8, !tbaa !313
  %47 = load ptr, ptr %18, align 8, !tbaa !3
  %48 = getelementptr i8, ptr %47, i64 0
  %49 = load i8, ptr %48, align 1, !tbaa !9
  %50 = call ptr @PyExpat_unsignedCharToPrintable(i8 noundef zeroext %49)
  %51 = call i32 (ptr, ptr, ...) @fprintf(ptr noundef %46, ptr noundef @.str.317, ptr noundef %50) #11
  br label %52

52:                                               ; preds = %45
  %53 = load ptr, ptr %18, align 8, !tbaa !3
  %54 = getelementptr i8, ptr %53, i32 1
  store ptr %54, ptr %18, align 8, !tbaa !3
  br label %41, !llvm.loop !315

55:                                               ; preds = %41
  br label %93

56:                                               ; preds = %33
  br label %57

57:                                               ; preds = %69, %56
  %58 = load ptr, ptr %18, align 8, !tbaa !3
  %59 = load ptr, ptr %10, align 8, !tbaa !3
  %60 = getelementptr i8, ptr %59, i64 10
  %61 = icmp ult ptr %58, %60
  br i1 %61, label %62, label %72

62:                                               ; preds = %57
  %63 = load ptr, ptr @stderr, align 8, !tbaa !313
  %64 = load ptr, ptr %18, align 8, !tbaa !3
  %65 = getelementptr i8, ptr %64, i64 0
  %66 = load i8, ptr %65, align 1, !tbaa !9
  %67 = call ptr @PyExpat_unsignedCharToPrintable(i8 noundef zeroext %66)
  %68 = call i32 (ptr, ptr, ...) @fprintf(ptr noundef %63, ptr noundef @.str.317, ptr noundef %67) #11
  br label %69

69:                                               ; preds = %62
  %70 = load ptr, ptr %18, align 8, !tbaa !3
  %71 = getelementptr i8, ptr %70, i32 1
  store ptr %71, ptr %18, align 8, !tbaa !3
  br label %57, !llvm.loop !316

72:                                               ; preds = %57
  %73 = load ptr, ptr @stderr, align 8, !tbaa !313
  %74 = getelementptr inbounds [5 x i8], ptr %15, i64 0, i64 0
  %75 = call i32 (ptr, ptr, ...) @fprintf(ptr noundef %73, ptr noundef %74) #11
  %76 = load ptr, ptr %11, align 8, !tbaa !3
  %77 = getelementptr i8, ptr %76, i64 -10
  store ptr %77, ptr %18, align 8, !tbaa !3
  br label %78

78:                                               ; preds = %89, %72
  %79 = load ptr, ptr %18, align 8, !tbaa !3
  %80 = load ptr, ptr %11, align 8, !tbaa !3
  %81 = icmp ult ptr %79, %80
  br i1 %81, label %82, label %92

82:                                               ; preds = %78
  %83 = load ptr, ptr @stderr, align 8, !tbaa !313
  %84 = load ptr, ptr %18, align 8, !tbaa !3
  %85 = getelementptr i8, ptr %84, i64 0
  %86 = load i8, ptr %85, align 1, !tbaa !9
  %87 = call ptr @PyExpat_unsignedCharToPrintable(i8 noundef zeroext %86)
  %88 = call i32 (ptr, ptr, ...) @fprintf(ptr noundef %83, ptr noundef @.str.317, ptr noundef %87) #11
  br label %89

89:                                               ; preds = %82
  %90 = load ptr, ptr %18, align 8, !tbaa !3
  %91 = getelementptr i8, ptr %90, i32 1
  store ptr %91, ptr %18, align 8, !tbaa !3
  br label %78, !llvm.loop !317

92:                                               ; preds = %78
  br label %93

93:                                               ; preds = %92, %55
  %94 = load ptr, ptr @stderr, align 8, !tbaa !313
  %95 = call i32 (ptr, ptr, ...) @fprintf(ptr noundef %94, ptr noundef @.str.318) #11
  call void @llvm.lifetime.end.p0(i64 8, ptr %18) #11
  call void @llvm.lifetime.end.p0(i64 4, ptr %17) #11
  call void @llvm.lifetime.end.p0(i64 8, ptr %16) #11
  call void @llvm.lifetime.end.p0(i64 5, ptr %15) #11
  ret void
}