; Function Attrs: cold nofree nounwind uwtable
define internal fastcc void @accountingReportDiff(ptr noundef readonly captures(none) %0, i32 noundef %1, ptr noundef %2, ptr noundef %3, i64 noundef %4, i32 noundef range(i32 2734, 6224) %5, i32 noundef range(i32 0, 2) %6) unnamed_addr #14 {
  %8 = load ptr, ptr @stderr, align 8, !tbaa !194
  %9 = icmp eq i32 %6, 0
  %10 = select i1 %9, ptr @.str.315, ptr @.str.316
  %11 = tail call i32 (ptr, ptr, ...) @fprintf(ptr noundef %8, ptr noundef nonnull @.str.314, i64 noundef %4, ptr noundef nonnull %10, i32 noundef %1, i32 noundef %5, i32 noundef 10, ptr noundef nonnull @.str.312) #28
  %12 = getelementptr inbounds nuw i8, ptr %0, i64 960
  %13 = load i64, ptr %12, align 8, !tbaa !118
  %14 = icmp ugt i64 %13, 2
  %15 = ptrtoint ptr %3 to i64
  %16 = ptrtoint ptr %2 to i64
  %17 = sub i64 %15, %16
  %18 = icmp slt i64 %17, 25
  %or.cond = or i1 %18, %14
  br i1 %or.cond, label %.preheader, label %.preheader26

.preheader26:                                     ; preds = %7
  %19 = getelementptr i8, ptr %2, i64 10
  %20 = icmp ult ptr %2, %19
  br i1 %20, label %.lr.ph, label %._crit_edge

.preheader:                                       ; preds = %7
  %21 = icmp ult ptr %2, %3
  br i1 %21, label %.lr.ph32, label %.loopexit

.lr.ph32:                                         ; preds = %.preheader, %.lr.ph32
  %.031 = phi ptr [ %25, %.lr.ph32 ], [ %2, %.preheader ]
  %22 = load ptr, ptr @stderr, align 8, !tbaa !194
  %23 = load i8, ptr %.031, align 1, !tbaa !3
  %24 = tail call ptr @PyExpat_unsignedCharToPrintable(i8 noundef zeroext %23)
  %fputs21 = tail call i32 @fputs(ptr nonnull %24, ptr %22) #29
  %25 = getelementptr i8, ptr %.031, i64 1
  %exitcond35.not = icmp eq ptr %25, %3
  br i1 %exitcond35.not, label %.loopexit, label %.lr.ph32, !llvm.loop !304

.lr.ph:                                           ; preds = %.preheader26, %.lr.ph
  %.127 = phi ptr [ %29, %.lr.ph ], [ %2, %.preheader26 ]
  %26 = load ptr, ptr @stderr, align 8, !tbaa !194
  %27 = load i8, ptr %.127, align 1, !tbaa !3
  %28 = tail call ptr @PyExpat_unsignedCharToPrintable(i8 noundef zeroext %27)
  %fputs20 = tail call i32 @fputs(ptr nonnull %28, ptr %26) #29
  %29 = getelementptr i8, ptr %.127, i64 1
  %exitcond.not = icmp eq ptr %29, %19
  br i1 %exitcond.not, label %._crit_edge, label %.lr.ph, !llvm.loop !305

._crit_edge:                                      ; preds = %.lr.ph, %.preheader26
  %30 = load ptr, ptr @stderr, align 8, !tbaa !194
  %31 = tail call i64 @fwrite(ptr nonnull @__const.accountingReportDiff.ellipis, i64 4, i64 1, ptr %30) #29
  %32 = getelementptr i8, ptr %3, i64 -10
  %33 = icmp ult ptr %32, %3
  br i1 %33, label %.lr.ph30, label %.loopexit

.lr.ph30:                                         ; preds = %._crit_edge, %.lr.ph30
  %.228 = phi ptr [ %37, %.lr.ph30 ], [ %32, %._crit_edge ]
  %34 = load ptr, ptr @stderr, align 8, !tbaa !194
  %35 = load i8, ptr %.228, align 1, !tbaa !3
  %36 = tail call ptr @PyExpat_unsignedCharToPrintable(i8 noundef zeroext %35)
  %fputs = tail call i32 @fputs(ptr nonnull %36, ptr %34) #29
  %37 = getelementptr i8, ptr %.228, i64 1
  %exitcond34.not = icmp eq ptr %37, %3
  br i1 %exitcond34.not, label %.loopexit, label %.lr.ph30, !llvm.loop !306

.loopexit:                                        ; preds = %.lr.ph30, %.lr.ph32, %._crit_edge, %.preheader
  %38 = load ptr, ptr @stderr, align 8, !tbaa !194
  %39 = tail call i64 @fwrite(ptr nonnull @.str.318, i64 2, i64 1, ptr %38) #29
  ret void
}